; Function Attrs: mustprogress uwtable
define hidden void @_ZN12polymorphism4util5freshEjPKP4sort(ptr dead_on_unwind noalias writable sret(%class.ref_vector) align 8 initializes((0, 16)) %0, ptr noundef nonnull align 8 dereferenceable(52) %1, i32 noundef %2, ptr noundef readonly captures(none) %3) local_unnamed_addr #3 align 2 personality ptr @__gxx_personality_v0 {
  %5 = alloca %class.obj_ref, align 8
  %6 = load ptr, ptr %1, align 8, !tbaa !132
  %7 = ptrtoint ptr %6 to i64
  store i64 %7, ptr %0, align 8, !tbaa !20
  %8 = getelementptr inbounds nuw i8, ptr %0, i64 8
  store ptr null, ptr %8, align 8, !tbaa !21
  %.not = icmp eq i32 %2, 0
  br i1 %.not, label %._crit_edge, label %.lr.ph.preheader

.lr.ph.preheader:                                 ; preds = %4
  %wide.trip.count = zext i32 %2 to i64
  br label %.lr.ph

.lr.ph:                                           ; preds = %.lr.ph.preheader, %_ZN7obj_refI4sort11ast_managerED2Ev.exit
  %indvars.iv = phi i64 [ 0, %.lr.ph.preheader ], [ %indvars.iv.next, %_ZN7obj_refI4sort11ast_managerED2Ev.exit ]
  call void @llvm.lifetime.start.p0(i64 16, ptr nonnull %5) #20
  %9 = getelementptr inbounds nuw ptr, ptr %3, i64 %indvars.iv
  %10 = load ptr, ptr %9, align 8, !tbaa !23
  invoke void @_ZN12polymorphism4util5freshEP4sort(ptr dead_on_unwind nonnull writable sret(%class.obj_ref) align 8 %5, ptr noundef nonnull align 8 dereferenceable(52) %1, ptr noundef %10)
          to label %11 unwind label %28

11:                                               ; preds = %.lr.ph
  %12 = load ptr, ptr %5, align 8, !tbaa !25
  %13 = load ptr, ptr %8, align 8, !tbaa !21
  %14 = icmp eq ptr %13, null
  br i1 %14, label %21, label %15

15:                                               ; preds = %11
  %16 = getelementptr inbounds i8, ptr %13, i64 -4
  %17 = load i32, ptr %16, align 4, !tbaa !22
  %18 = getelementptr inbounds i8, ptr %13, i64 -8
  %19 = load i32, ptr %18, align 4, !tbaa !22
  %20 = icmp eq i32 %17, %19
  br i1 %20, label %21, label %_ZN7obj_refI4sort11ast_managerED2Ev.exit

21:                                               ; preds = %15, %11
  invoke void @_ZN6vectorIP4sortLb0EjE13expand_vectorEv(ptr noundef nonnull align 8 dereferenceable(8) %8)
          to label %.noexc unwind label %30

.noexc:                                           ; preds = %21
  %.pre.i.i = load ptr, ptr %8, align 8, !tbaa !21
  %.phi.trans.insert.i.i = getelementptr inbounds i8, ptr %.pre.i.i, i64 -4
  %.pre2.i.i = load i32, ptr %.phi.trans.insert.i.i, align 4, !tbaa !22
  br label %_ZN7obj_refI4sort11ast_managerED2Ev.exit

_ZN7obj_refI4sort11ast_managerED2Ev.exit:         ; preds = %15, %.noexc
  %22 = phi i32 [ %.pre2.i.i, %.noexc ], [ %17, %15 ]
  %23 = phi ptr [ %.pre.i.i, %.noexc ], [ %13, %15 ]
  %24 = getelementptr inbounds i8, ptr %23, i64 -4
  %25 = zext i32 %22 to i64
  %26 = getelementptr inbounds nuw ptr, ptr %23, i64 %25
  store ptr %12, ptr %26, align 8, !tbaa !23
  %27 = add i32 %22, 1
  store i32 %27, ptr %24, align 4, !tbaa !22
  call void @llvm.lifetime.end.p0(i64 16, ptr nonnull %5) #20
  %indvars.iv.next = add nuw nsw i64 %indvars.iv, 1
  %exitcond.not = icmp eq i64 %indvars.iv.next, %wide.trip.count
  br i1 %exitcond.not, label %._crit_edge, label %.lr.ph, !llvm.loop !155

28:                                               ; preds = %.lr.ph
  %29 = landingpad { ptr, i32 }
          cleanup
  br label %32

30:                                               ; preds = %21
  %31 = landingpad { ptr, i32 }
          cleanup
  call void @_ZN7obj_refI4sort11ast_managerED2Ev(ptr noundef nonnull align 8 dereferenceable(16) %5) #20
  br label %32

32:                                               ; preds = %30, %28
  %.pn = phi { ptr, i32 } [ %31, %30 ], [ %29, %28 ]
  call void @llvm.lifetime.end.p0(i64 16, ptr nonnull %5) #20
  call void @_ZN15ref_vector_coreI4sort19ref_manager_wrapperIS0_11ast_managerEED2Ev(ptr noundef nonnull align 8 dereferenceable(16) %0) #20
  resume { ptr, i32 } %.pn

._crit_edge:                                      ; preds = %_ZN7obj_refI4sort11ast_managerED2Ev.exit, %4
  ret void
}